target datalayout = "e-m:e-p270:32:32-p271:32:32-p272:64:64-i64:64-i128:128-f80:128-n8:16:32:64-S128"
target triple = "x86_64-unknown-linux-gnu"

%struct.QObject = type { %struct.QObjectBase_ }
%struct.QObjectBase_ = type { i32, i64 }
%struct.QDictEntry = type { ptr, ptr, %struct.anon }
%struct.anon = type { ptr, ptr }

; Function Attrs: nounwind sspstrong uwtable
define internal void @qobject_ref_impl(ptr noundef %obj) #0 {
entry:
  %obj.addr = alloca ptr, align 8
  store ptr %obj, ptr %obj.addr, align 8
  %0 = load ptr, ptr %obj.addr, align 8
  %tobool = icmp ne ptr %0, null
  br i1 %tobool, label %if.then, label %if.end

if.then:                                          ; preds = %entry
  %1 = load ptr, ptr %obj.addr, align 8
  %base = getelementptr inbounds %struct.QObject, ptr %1, i32 0, i32 0
  %refcnt = getelementptr inbounds %struct.QObjectBase_, ptr %base, i32 0, i32 1
  %2 = load i64, ptr %refcnt, align 8
  %inc = add i64 %2, 1
  store i64 %inc, ptr %refcnt, align 8
  br label %if.end

if.end:                                           ; preds = %if.then, %entry
  ret void
}

; Function Attrs: nounwind sspstrong uwtable
define dso_local void @qdict_join(ptr noundef %dest, ptr noundef %src, i1 noundef zeroext %overwrite) #0 {
entry:
  %dest.addr = alloca ptr, align 8
  %src.addr = alloca ptr, align 8
  %overwrite.addr = alloca i8, align 1
  %entry1 = alloca ptr, align 8
  %next = alloca ptr, align 8
  %_o = alloca ptr, align 8
  %_obj19 = alloca ptr, align 8
  %tmp = alloca ptr, align 8
  %__mptr = alloca ptr, align 8
  %tmp8 = alloca ptr, align 8
  %tmp9 = alloca ptr, align 8
  store ptr %dest, ptr %dest.addr, align 8
  store ptr %src, ptr %src.addr, align 8
  %frombool = zext i1 %overwrite to i8
  store i8 %frombool, ptr %overwrite.addr, align 1
  %0 = load ptr, ptr %src.addr, align 8
  %call = call ptr @qdict_first(ptr noundef %0)
  store ptr %call, ptr %entry1, align 8
  br label %while.cond

while.cond:                                       ; preds = %if.end, %entry
  %1 = load ptr, ptr %entry1, align 8
  %tobool = icmp ne ptr %1, null
  br i1 %tobool, label %while.body, label %while.end

while.body:                                       ; preds = %while.cond
  %2 = load ptr, ptr %src.addr, align 8
  %3 = load ptr, ptr %entry1, align 8
  %call2 = call ptr @qdict_next(ptr noundef %2, ptr noundef %3)
  store ptr %call2, ptr %next, align 8
  %4 = load i8, ptr %overwrite.addr, align 1
  %tobool3 = trunc i8 %4 to i1
  br i1 %tobool3, label %if.then, label %lor.lhs.false

lor.lhs.false:                                    ; preds = %while.body
  %5 = load ptr, ptr %dest.addr, align 8
  %6 = load ptr, ptr %entry1, align 8
  %key = getelementptr inbounds %struct.QDictEntry, ptr %6, i32 0, i32 0
  %7 = load ptr, ptr %key, align 8
  %call4 = call i32 @qdict_haskey(ptr noundef %5, ptr noundef %7)
  %tobool5 = icmp ne i32 %call4, 0
  br i1 %tobool5, label %if.end, label %if.then

if.then:                                          ; preds = %lor.lhs.false, %while.body
  %8 = load ptr, ptr %dest.addr, align 8
  %9 = load ptr, ptr %entry1, align 8
  %key6 = getelementptr inbounds %struct.QDictEntry, ptr %9, i32 0, i32 0
  %10 = load ptr, ptr %key6, align 8
  %11 = load ptr, ptr %entry1, align 8
  %value = getelementptr inbounds %struct.QDictEntry, ptr %11, i32 0, i32 1
  %12 = load ptr, ptr %value, align 8
  store ptr %12, ptr %_o, align 8
  %13 = load ptr, ptr %_o, align 8
  store ptr %13, ptr %_obj19, align 8
  %14 = load ptr, ptr %_obj19, align 8
  %tobool7 = icmp ne ptr %14, null
  br i1 %tobool7, label %cond.true, label %cond.false

cond.true:                                        ; preds = %if.then
  %15 = load ptr, ptr %_obj19, align 8
  %base = getelementptr inbounds %struct.QObject, ptr %15, i32 0, i32 0
  store ptr %base, ptr %__mptr, align 8
  %16 = load ptr, ptr %__mptr, align 8
  %add.ptr = getelementptr i8, ptr %16, i64 0
  store ptr %add.ptr, ptr %tmp8, align 8
  %17 = load ptr, ptr %tmp8, align 8
  br label %cond.end

cond.false:                                       ; preds = %if.then
  br label %cond.end

cond.end:                                         ; preds = %cond.false, %cond.true
  %cond = phi ptr [ %17, %cond.true ], [ null, %cond.false ]
  store ptr %cond, ptr %tmp, align 8
  %18 = load ptr, ptr %tmp, align 8
  call void @qobject_ref_impl(ptr noundef %18)
  %19 = load ptr, ptr %_o, align 8
  store ptr %19, ptr %tmp9, align 8
  %20 = load ptr, ptr %tmp9, align 8
  call void @qdict_put_obj(ptr noundef %8, ptr noundef %10, ptr noundef %20)
  %21 = load ptr, ptr %src.addr, align 8
  %22 = load ptr, ptr %entry1, align 8
  %key10 = getelementptr inbounds %struct.QDictEntry, ptr %22, i32 0, i32 0
  %23 = load ptr, ptr %key10, align 8
  call void @qdict_del(ptr noundef %21, ptr noundef %23)
  br label %if.end

if.end:                                           ; preds = %cond.end, %lor.lhs.false
  %24 = load ptr, ptr %next, align 8
  store ptr %24, ptr %entry1, align 8
  br label %while.cond, !llvm.loop !18

while.end:                                        ; preds = %while.cond
  ret void
}