; Function Attrs: nounwind sspstrong uwtable
define dso_local void @qdict_join(ptr noundef %dest, ptr noundef %src, i1 noundef zeroext %overwrite) local_unnamed_addr #0 {
entry:
  %call = tail call ptr @qdict_first(ptr noundef %src) #7
  %tobool.not11 = icmp eq ptr %call, null
  br i1 %tobool.not11, label %while.end, label %while.body.lr.ph

while.body.lr.ph:                                 ; preds = %entry
  br i1 %overwrite, label %while.body.us, label %while.body

while.body.us:                                    ; preds = %while.body.lr.ph, %qobject_ref_impl.exit.us
  %entry1.012.us = phi ptr [ %call2.us, %qobject_ref_impl.exit.us ], [ %call, %while.body.lr.ph ]
  %call2.us = tail call ptr @qdict_next(ptr noundef %src, ptr noundef nonnull %entry1.012.us) #7
  %0 = load ptr, ptr %entry1.012.us, align 8
  %value.us = getelementptr inbounds nuw i8, ptr %entry1.012.us, i64 8
  %1 = load ptr, ptr %value.us, align 8
  %tobool7.not.us = icmp eq ptr %1, null
  br i1 %tobool7.not.us, label %qobject_ref_impl.exit.us, label %if.then.i.us

if.then.i.us:                                     ; preds = %while.body.us
  %refcnt.i.us = getelementptr inbounds nuw i8, ptr %1, i64 8
  %2 = load i64, ptr %refcnt.i.us, align 8
  %inc.i.us = add i64 %2, 1
  store i64 %inc.i.us, ptr %refcnt.i.us, align 8
  br label %qobject_ref_impl.exit.us

qobject_ref_impl.exit.us:                         ; preds = %if.then.i.us, %while.body.us
  tail call void @qdict_put_obj(ptr noundef %dest, ptr noundef %0, ptr noundef %1) #7
  %3 = load ptr, ptr %entry1.012.us, align 8
  tail call void @qdict_del(ptr noundef %src, ptr noundef %3) #7
  %tobool.not.us = icmp eq ptr %call2.us, null
  br i1 %tobool.not.us, label %while.end, label %while.body.us, !llvm.loop !18

while.body:                                       ; preds = %while.body.lr.ph, %if.end
  %entry1.012 = phi ptr [ %call2, %if.end ], [ %call, %while.body.lr.ph ]
  %call2 = tail call ptr @qdict_next(ptr noundef %src, ptr noundef nonnull %entry1.012) #7
  %4 = load ptr, ptr %entry1.012, align 8
  %call4 = tail call i32 @qdict_haskey(ptr noundef %dest, ptr noundef %4) #7
  %tobool5.not = icmp eq i32 %call4, 0
  br i1 %tobool5.not, label %if.then, label %if.end

if.then:                                          ; preds = %while.body
  %5 = load ptr, ptr %entry1.012, align 8
  %value = getelementptr inbounds nuw i8, ptr %entry1.012, i64 8
  %6 = load ptr, ptr %value, align 8
  %tobool7.not = icmp eq ptr %6, null
  br i1 %tobool7.not, label %qobject_ref_impl.exit, label %if.then.i

if.then.i:                                        ; preds = %if.then
  %refcnt.i = getelementptr inbounds nuw i8, ptr %6, i64 8
  %7 = load i64, ptr %refcnt.i, align 8
  %inc.i = add i64 %7, 1
  store i64 %inc.i, ptr %refcnt.i, align 8
  br label %qobject_ref_impl.exit

qobject_ref_impl.exit:                            ; preds = %if.then, %if.then.i
  tail call void @qdict_put_obj(ptr noundef %dest, ptr noundef %5, ptr noundef %6) #7
  %8 = load ptr, ptr %entry1.012, align 8
  tail call void @qdict_del(ptr noundef %src, ptr noundef %8) #7
  br label %if.end

if.end:                                           ; preds = %qobject_ref_impl.exit, %while.body
  %tobool.not = icmp eq ptr %call2, null
  br i1 %tobool.not, label %while.end, label %while.body, !llvm.loop !18

while.end:                                        ; preds = %if.end, %qobject_ref_impl.exit.us, %entry
  ret void
}